ARM GAS  C:\Users\AADARS~1\AppData\Local\Temp\ccS4a7C5.s 			page 1


   1              		.syntax unified
   2              		.cpu cortex-m3
   3              		.fpu softvfp
   4              		.eabi_attribute 20, 1
   5              		.eabi_attribute 21, 1
   6              		.eabi_attribute 23, 3
   7              		.eabi_attribute 24, 1
   8              		.eabi_attribute 25, 1
   9              		.eabi_attribute 26, 1
  10              		.eabi_attribute 30, 1
  11              		.eabi_attribute 34, 1
  12              		.eabi_attribute 18, 4
  13              		.thumb
  14              		.syntax unified
  15              		.file	"led.c"
  16              		.text
  17              	.Ltext0:
  18              		.cfi_sections	.debug_frame
  19              		.section	.text.LED_Set,"ax",%progbits
  20              		.align	2
  21              		.global	LED_Set
  22              		.thumb
  23              		.thumb_func
  24              		.type	LED_Set, %function
  25              	LED_Set:
  26              	.LFB63:
  27              		.file 1 "source\\bsw\\led.c"
   1:source\bsw/led.c **** /**
   2:source\bsw/led.c **** * \file led.h
   3:source\bsw/led.c **** * \author Aadarsh Kumar Singh
   4:source\bsw/led.c **** * \date 11.06.2020
   5:source\bsw/led.c **** **/
   6:source\bsw/led.c **** 
   7:source\bsw/led.c **** /*****************************************************************************/
   8:source\bsw/led.c **** /* Include files                                                             */
   9:source\bsw/led.c **** /*****************************************************************************/
  10:source\bsw/led.c **** 
  11:source\bsw/led.c **** #include "project.h"
  12:source\bsw/led.c **** #include "led.h"
  13:source\bsw/led.c **** 
  14:source\bsw/led.c **** 
  15:source\bsw/led.c **** /**
  16:source\bsw/led.c ****  * Sets the required LED
  17:source\bsw/led.c ****  * @param LED_t ledId - Identifier for the LED, ALL will change all LED's
  18:source\bsw/led.c ****  * @param LED_ONOFF_t ledOnOff - Trun the led on or off
  19:source\bsw/led.c ****  * @return RC_SUCCESS if function was executed as exepected, other error code in case of error
  20:source\bsw/led.c ****  */
  21:source\bsw/led.c **** RC_t LED_Set(LED_id_t ledId, LED_ONOFF_t ledOnOff)
  22:source\bsw/led.c **** {
  28              		.loc 1 22 0
  29              		.cfi_startproc
  30              		@ args = 0, pretend = 0, frame = 0
  31              		@ frame_needed = 0, uses_anonymous_args = 0
  32              	.LVL0:
  33 0000 38B5     		push	{r3, r4, r5, lr}
  34              		.cfi_def_cfa_offset 16
  35              		.cfi_offset 3, -16
ARM GAS  C:\Users\AADARS~1\AppData\Local\Temp\ccS4a7C5.s 			page 2


  36              		.cfi_offset 4, -12
  37              		.cfi_offset 5, -8
  38              		.cfi_offset 14, -4
  39 0002 0D46     		mov	r5, r1
  23:source\bsw/led.c ****     //set individual LED
  24:source\bsw/led.c ****     switch (ledId)
  40              		.loc 1 24 0
  41 0004 0328     		cmp	r0, #3
  42 0006 1ED8     		bhi	.L9
  43 0008 DFE800F0 		tbb	[pc, r0]
  44              	.L4:
  45 000c 02       		.byte	(.L3-.L4)/2
  46 000d 07       		.byte	(.L5-.L4)/2
  47 000e 0C       		.byte	(.L6-.L4)/2
  48 000f 18       		.byte	(.L10-.L4)/2
  49              		.p2align 1
  50              	.L3:
  25:source\bsw/led.c ****     {
  26:source\bsw/led.c ****         case LED_RED : 
  27:source\bsw/led.c ****             LED_red_Write(ledOnOff); 
  51              		.loc 1 27 0
  52 0010 0846     		mov	r0, r1
  53              	.LVL1:
  54 0012 FFF7FEFF 		bl	LED_red_Write
  55              	.LVL2:
  28:source\bsw/led.c ****             break;
  29:source\bsw/led.c ****         
  30:source\bsw/led.c ****         case LED_YELLOW : 
  31:source\bsw/led.c ****             LED_yellow_Write(ledOnOff);
  32:source\bsw/led.c ****             break;
  33:source\bsw/led.c ****             
  34:source\bsw/led.c ****         case LED_GREEN : 
  35:source\bsw/led.c ****             LED_green_Write(ledOnOff);             
  36:source\bsw/led.c ****             break;
  37:source\bsw/led.c ****            
  38:source\bsw/led.c ****         case LED_ALL : 
  39:source\bsw/led.c ****             for (LED_id_t i = LED_RED; i < LED_ALL; i++)
  40:source\bsw/led.c ****             {
  41:source\bsw/led.c ****                 LED_Set(i, ledOnOff);
  42:source\bsw/led.c ****             }
  43:source\bsw/led.c ****             break;
  44:source\bsw/led.c ****         default: return RC_ERROR_BAD_PARAM;
  45:source\bsw/led.c ****     }
  46:source\bsw/led.c ****     
  47:source\bsw/led.c ****     return RC_SUCCESS;
  56              		.loc 1 47 0
  57 0016 0020     		movs	r0, #0
  28:source\bsw/led.c ****             break;
  58              		.loc 1 28 0
  59 0018 38BD     		pop	{r3, r4, r5, pc}
  60              	.LVL3:
  61              	.L5:
  31:source\bsw/led.c ****             break;
  62              		.loc 1 31 0
  63 001a 0846     		mov	r0, r1
  64              	.LVL4:
  65 001c FFF7FEFF 		bl	LED_yellow_Write
ARM GAS  C:\Users\AADARS~1\AppData\Local\Temp\ccS4a7C5.s 			page 3


  66              	.LVL5:
  67              		.loc 1 47 0
  68 0020 0020     		movs	r0, #0
  32:source\bsw/led.c ****             
  69              		.loc 1 32 0
  70 0022 38BD     		pop	{r3, r4, r5, pc}
  71              	.LVL6:
  72              	.L6:
  35:source\bsw/led.c ****             break;
  73              		.loc 1 35 0
  74 0024 0846     		mov	r0, r1
  75              	.LVL7:
  76 0026 FFF7FEFF 		bl	LED_green_Write
  77              	.LVL8:
  78              		.loc 1 47 0
  79 002a 0020     		movs	r0, #0
  36:source\bsw/led.c ****            
  80              		.loc 1 36 0
  81 002c 38BD     		pop	{r3, r4, r5, pc}
  82              	.LVL9:
  83              	.L8:
  84              	.LBB2:
  41:source\bsw/led.c ****             }
  85              		.loc 1 41 0 discriminator 3
  86 002e 2946     		mov	r1, r5
  87 0030 2046     		mov	r0, r4
  88 0032 FFF7FEFF 		bl	LED_Set
  89              	.LVL10:
  39:source\bsw/led.c ****             {
  90              		.loc 1 39 0 discriminator 3
  91 0036 0134     		adds	r4, r4, #1
  92              	.LVL11:
  93 0038 E4B2     		uxtb	r4, r4
  94              	.LVL12:
  95 003a 00E0     		b	.L7
  96              	.LVL13:
  97              	.L10:
  98              	.LBE2:
  24:source\bsw/led.c ****     {
  99              		.loc 1 24 0
 100 003c 0024     		movs	r4, #0
 101              	.LVL14:
 102              	.L7:
 103              	.LBB3:
  39:source\bsw/led.c ****             {
 104              		.loc 1 39 0 discriminator 1
 105 003e 022C     		cmp	r4, #2
 106 0040 F5D9     		bls	.L8
 107              	.LBE3:
 108              		.loc 1 47 0
 109 0042 0020     		movs	r0, #0
 110              	.LBB4:
 111 0044 38BD     		pop	{r3, r4, r5, pc}
 112              	.LVL15:
 113              	.L9:
 114              	.LBE4:
  44:source\bsw/led.c ****     }
ARM GAS  C:\Users\AADARS~1\AppData\Local\Temp\ccS4a7C5.s 			page 4


 115              		.loc 1 44 0
 116 0046 6FF01300 		mvn	r0, #19
 117              	.LVL16:
  48:source\bsw/led.c **** }
 118              		.loc 1 48 0
 119 004a 38BD     		pop	{r3, r4, r5, pc}
 120              		.cfi_endproc
 121              	.LFE63:
 122              		.size	LED_Set, .-LED_Set
 123              		.text
 124              	.Letext0:
 125              		.file 2 "c:\\program files (x86)\\cypress\\psoc creator\\4.3\\psoc creator\\import\\gnu\\arm\\5.4.
 126              		.file 3 "c:\\program files (x86)\\cypress\\psoc creator\\4.3\\psoc creator\\import\\gnu\\arm\\5.4.
 127              		.file 4 "source\\bsw\\global.h"
 128              		.file 5 "source\\bsw\\led.h"
 129              		.file 6 "Generated_Source\\PSoC5/LED_red.h"
 130              		.file 7 "Generated_Source\\PSoC5/LED_yellow.h"
 131              		.file 8 "Generated_Source\\PSoC5/LED_green.h"
 132              		.file 9 "Generated_Source\\PSoC5/core_cm3.h"