ARM GAS  C:\Users\AADARS~1\AppData\Local\Temp\ccbBbbVd.s 			page 1


   1              		.syntax unified
   2              		.cpu cortex-m3
   3              		.fpu softvfp
   4              		.eabi_attribute 20, 1
   5              		.eabi_attribute 21, 1
   6              		.eabi_attribute 23, 3
   7              		.eabi_attribute 24, 1
   8              		.eabi_attribute 25, 1
   9              		.eabi_attribute 26, 1
  10              		.eabi_attribute 30, 1
  11              		.eabi_attribute 34, 1
  12              		.eabi_attribute 18, 4
  13              		.thumb
  14              		.syntax unified
  15              		.file	"button.c"
  16              		.text
  17              	.Ltext0:
  18              		.cfi_sections	.debug_frame
  19              		.section	.text.BUTTON_Init,"ax",%progbits
  20              		.align	2
  21              		.global	BUTTON_Init
  22              		.thumb
  23              		.thumb_func
  24              		.type	BUTTON_Init, %function
  25              	BUTTON_Init:
  26              	.LFB63:
  27              		.file 1 "source\\bsw\\button.c"
   1:source\bsw/button.c **** /**
   2:source\bsw/button.c **** * \file button.c
   3:source\bsw/button.c **** * \author P. Fromm
   4:source\bsw/button.c **** * \date 29.7.17
   5:source\bsw/button.c **** *
   6:source\bsw/button.c **** * \brief Simple button driver
   7:source\bsw/button.c **** *
   8:source\bsw/button.c **** * \copyright Copyright ©2016
   9:source\bsw/button.c **** * Department of electrical engineering and information technology, Hochschule Darmstadt - Universit
  10:source\bsw/button.c **** * Permission to use, copy, modify, and distribute this software and its documentation for education
  11:source\bsw/button.c **** * (unless permitted by h_da) and official h_da projects, is hereby granted for enrolled students of
  12:source\bsw/button.c **** * this paragraph and the following paragraph appear in all copies, modifications, and distributions
  13:source\bsw/button.c **** * Contact Prof.Dr.-Ing. Peter Fromm, peter.fromm@h-da.de, Birkenweg 8 64295 Darmstadt - GERMANY for
  14:source\bsw/button.c **** *
  15:source\bsw/button.c **** * \warning This software is a PROTOTYPE version and is not designed or intended for use in producti
  16:source\bsw/button.c **** * The user represents and warrants that it will NOT use or redistribute the Software for such purpo
  17:source\bsw/button.c **** * This prototype is for research purposes only. This software is provided "AS IS," without a warran
  18:source\bsw/button.c **** */
  19:source\bsw/button.c **** 
  20:source\bsw/button.c **** /*****************************************************************************/
  21:source\bsw/button.c **** /* Include files                                                             */
  22:source\bsw/button.c **** /*****************************************************************************/
  23:source\bsw/button.c **** #include "project.h"
  24:source\bsw/button.c **** #include "button.h"
  25:source\bsw/button.c **** 
  26:source\bsw/button.c **** #include "BUTTON_1.h"
  27:source\bsw/button.c **** 
  28:source\bsw/button.c **** 
  29:source\bsw/button.c **** /*****************************************************************************/
  30:source\bsw/button.c **** /* Local pre-processor symbols/macros ('#define')                            */
ARM GAS  C:\Users\AADARS~1\AppData\Local\Temp\ccbBbbVd.s 			page 2


  31:source\bsw/button.c **** /*****************************************************************************/
  32:source\bsw/button.c **** 
  33:source\bsw/button.c **** /*****************************************************************************/
  34:source\bsw/button.c **** /* Global variable definitions (declared in header file with 'extern')       */
  35:source\bsw/button.c **** /*****************************************************************************/
  36:source\bsw/button.c **** 
  37:source\bsw/button.c **** /*****************************************************************************/
  38:source\bsw/button.c **** /* Local type definitions ('typedef')                                        */
  39:source\bsw/button.c **** /*****************************************************************************/
  40:source\bsw/button.c **** 
  41:source\bsw/button.c **** /*****************************************************************************/
  42:source\bsw/button.c **** /* Local variable definitions ('static')                                     */
  43:source\bsw/button.c **** /*****************************************************************************/
  44:source\bsw/button.c **** 
  45:source\bsw/button.c **** 
  46:source\bsw/button.c **** /*****************************************************************************/
  47:source\bsw/button.c **** /* Local function prototypes ('static')                                      */
  48:source\bsw/button.c **** /*****************************************************************************/
  49:source\bsw/button.c **** 
  50:source\bsw/button.c **** 
  51:source\bsw/button.c **** /*****************************************************************************/
  52:source\bsw/button.c **** /* Function implementation - global ('extern') and local ('static')          */
  53:source\bsw/button.c **** /*****************************************************************************/
  54:source\bsw/button.c **** 
  55:source\bsw/button.c **** /**
  56:source\bsw/button.c ****  * Initialize Button
  57:source\bsw/button.c ****  * @return RC_SUCCESS if ok
  58:source\bsw/button.c ****  */
  59:source\bsw/button.c **** RC_t BUTTON_Init(cyisraddress address)
  60:source\bsw/button.c **** {
  28              		.loc 1 60 0
  29              		.cfi_startproc
  30              		@ args = 0, pretend = 0, frame = 0
  31              		@ frame_needed = 0, uses_anonymous_args = 0
  32              	.LVL0:
  61:source\bsw/button.c ****      if (address != 0)
  33              		.loc 1 61 0
  34 0000 20B1     		cbz	r0, .L4
  60:source\bsw/button.c ****      if (address != 0)
  35              		.loc 1 60 0
  36 0002 08B5     		push	{r3, lr}
  37              		.cfi_def_cfa_offset 8
  38              		.cfi_offset 3, -8
  39              		.cfi_offset 14, -4
  40              	.LBB2:
  62:source\bsw/button.c ****     {
  63:source\bsw/button.c ****         isr_Button_StartEx(address);
  41              		.loc 1 63 0
  42 0004 FFF7FEFF 		bl	isr_Button_StartEx
  43              	.LVL1:
  44              	.LBE2:
  64:source\bsw/button.c ****     }  
  65:source\bsw/button.c ****     return RC_SUCCESS;
  66:source\bsw/button.c **** }
  45              		.loc 1 66 0
  46 0008 0020     		movs	r0, #0
  47 000a 08BD     		pop	{r3, pc}
ARM GAS  C:\Users\AADARS~1\AppData\Local\Temp\ccbBbbVd.s 			page 3


  48              	.LVL2:
  49              	.L4:
  50              		.cfi_def_cfa_offset 0
  51              		.cfi_restore 3
  52              		.cfi_restore 14
  53 000c 0020     		movs	r0, #0
  54              	.LVL3:
  55 000e 7047     		bx	lr
  56              		.cfi_endproc
  57              	.LFE63:
  58              		.size	BUTTON_Init, .-BUTTON_Init
  59              		.section	.text.BUTTON_IsPressed,"ax",%progbits
  60              		.align	2
  61              		.global	BUTTON_IsPressed
  62              		.thumb
  63              		.thumb_func
  64              		.type	BUTTON_IsPressed, %function
  65              	BUTTON_IsPressed:
  66              	.LFB64:
  67:source\bsw/button.c **** 
  68:source\bsw/button.c **** /**
  69:source\bsw/button.c ****  * Initialize Button
  70:source\bsw/button.c ****  * @param BUTTON_id_t button - check if the corresponding button is pressed
  71:source\bsw/button.c ****  * @return TRUE if button is pressed
  72:source\bsw/button.c ****  */
  73:source\bsw/button.c **** boolean_t BUTTON_IsPressed(BUTTON_id_t button)
  74:source\bsw/button.c **** {
  67              		.loc 1 74 0
  68              		.cfi_startproc
  69              		@ args = 0, pretend = 0, frame = 0
  70              		@ frame_needed = 0, uses_anonymous_args = 0
  71              	.LVL4:
  72 0000 08B5     		push	{r3, lr}
  73              		.cfi_def_cfa_offset 8
  74              		.cfi_offset 3, -8
  75              		.cfi_offset 14, -4
  76              	.LVL5:
  75:source\bsw/button.c ****     boolean_t result = FALSE;
  76:source\bsw/button.c ****     
  77:source\bsw/button.c ****     if (BUTTON_1_Read() == 1) 
  77              		.loc 1 77 0
  78 0002 FFF7FEFF 		bl	BUTTON_1_Read
  79              	.LVL6:
  80 0006 0128     		cmp	r0, #1
  81 0008 01D0     		beq	.L7
  75:source\bsw/button.c ****     boolean_t result = FALSE;
  82              		.loc 1 75 0
  83 000a 0020     		movs	r0, #0
  84 000c 08BD     		pop	{r3, pc}
  85              	.L7:
  78:source\bsw/button.c ****         result = TRUE;   
  86              		.loc 1 78 0
  87 000e 0120     		movs	r0, #1
  88              	.LVL7:
  79:source\bsw/button.c ****     
  80:source\bsw/button.c ****     return result;
  81:source\bsw/button.c **** }...
ARM GAS  C:\Users\AADARS~1\AppData\Local\Temp\ccbBbbVd.s 			page 4


  89              		.loc 1 81 0
  90 0010 08BD     		pop	{r3, pc}
  91              		.cfi_endproc
  92              	.LFE64:
  93              		.size	BUTTON_IsPressed, .-BUTTON_IsPressed
  94 0012 00BF     		.text
  95              	.Letext0:
  96              		.file 2 "c:\\program files (x86)\\cypress\\psoc creator\\4.3\\psoc creator\\import\\gnu\\arm\\5.4.
  97              		.file 3 "c:\\program files (x86)\\cypress\\psoc creator\\4.3\\psoc creator\\import\\gnu\\arm\\5.4.
  98              		.file 4 "Generated_Source\\PSoC5/cytypes.h"
  99              		.file 5 "source\\bsw\\global.h"
 100              		.file 6 "source\\bsw\\button.h"
 101              		.file 7 "Generated_Source\\PSoC5/BUTTON_1.h"
 102              		.file 8 "Generated_Source\\PSoC5/core_cm3.h"