ARM GAS  C:\Users\AADARS~1\AppData\Local\Temp\ccy34hAN.s 			page 1


   1              		.syntax unified
   2              		.cpu cortex-m3
   3              		.fpu softvfp
   4              		.eabi_attribute 20, 1
   5              		.eabi_attribute 21, 1
   6              		.eabi_attribute 23, 3
   7              		.eabi_attribute 24, 1
   8              		.eabi_attribute 25, 1
   9              		.eabi_attribute 26, 1
  10              		.eabi_attribute 30, 1
  11              		.eabi_attribute 34, 1
  12              		.eabi_attribute 18, 4
  13              		.thumb
  14              		.syntax unified
  15              		.file	"main.c"
  16              		.text
  17              	.Ltext0:
  18              		.cfi_sections	.debug_frame
  19              		.section	.text.isr_Button_handler,"ax",%progbits
  20              		.align	2
  21              		.global	isr_Button_handler
  22              		.thumb
  23              		.thumb_func
  24              		.type	isr_Button_handler, %function
  25              	isr_Button_handler:
  26              	.LFB65:
  27              		.file 1 "source\\asw\\main.c"
   1:source\asw/main.c **** /* ========================================
   2:source\asw/main.c ****  *
   3:source\asw/main.c ****  * Copyright YOUR COMPANY, THE YEAR
   4:source\asw/main.c ****  * All Rights Reserved
   5:source\asw/main.c ****  * UNPUBLISHED, LICENSED SOFTWARE.
   6:source\asw/main.c ****  *
   7:source\asw/main.c ****  * CONFIDENTIAL AND PROPRIETARY INFORMATION
   8:source\asw/main.c ****  * WHICH IS THE PROPERTY OF your company.
   9:source\asw/main.c ****  *
  10:source\asw/main.c ****  * ========================================
  11:source\asw/main.c **** */
  12:source\asw/main.c **** #include "project.h"
  13:source\asw/main.c **** #include "global.h"
  14:source\asw/main.c **** #include "led.h"
  15:source\asw/main.c **** #include "dma.h"
  16:source\asw/main.c **** #include "movementDetector.h"
  17:source\asw/main.c **** 
  18:source\asw/main.c **** /* Number of bytes to be buffered  */
  19:source\asw/main.c **** #define ADC_SAMPLE_BUFF_SIZE 1024
  20:source\asw/main.c **** 
  21:source\asw/main.c **** /* Destination where ADC samples are stored */
  22:source\asw/main.c **** uint16 AdcSamplesFromDMA[ADC_SAMPLE_BUFF_SIZE];
  23:source\asw/main.c **** 
  24:source\asw/main.c **** /****** function prototypes ***********/
  25:source\asw/main.c **** /**
  26:source\asw/main.c ****  * Initialization of peripherals - DAC, UART,ADC
  27:source\asw/main.c ****  * Starts ADC sampling in continous mode
  28:source\asw/main.c ****  * @return void
  29:source\asw/main.c ****  */
  30:source\asw/main.c **** void peripheral_init();
ARM GAS  C:\Users\AADARS~1\AppData\Local\Temp\ccy34hAN.s 			page 2


  31:source\asw/main.c **** 
  32:source\asw/main.c **** /**
  33:source\asw/main.c ****  * Interrupt Service Routine (ISR) for Button
  34:source\asw/main.c ****  * @return void
  35:source\asw/main.c ****  */
  36:source\asw/main.c **** void isr_Button_handler();
  37:source\asw/main.c **** 
  38:source\asw/main.c **** /**
  39:source\asw/main.c ****  * Interrupt Service Routine (ISR) for UART
  40:source\asw/main.c ****  * @return void
  41:source\asw/main.c ****  */
  42:source\asw/main.c **** void isr_Uart_handler_onRX();
  43:source\asw/main.c **** 
  44:source\asw/main.c **** /**
  45:source\asw/main.c ****  * Interrupt Service Routine (ISR) for DMA
  46:source\asw/main.c ****  * @return void
  47:source\asw/main.c ****  */
  48:source\asw/main.c **** void isr_DMA_handler_onEOC();
  49:source\asw/main.c **** 
  50:source\asw/main.c **** int main(void)
  51:source\asw/main.c **** {
  52:source\asw/main.c ****     /* Enable global interrupts. */
  53:source\asw/main.c ****     CyGlobalIntEnable; 
  54:source\asw/main.c **** 
  55:source\asw/main.c ****     /* Activates and Enables button Interrupt */
  56:source\asw/main.c ****     IRQ_BUTTON_StartEx(isr_Button_handler);
  57:source\asw/main.c ****     
  58:source\asw/main.c ****     /* Activates and Enables UART Interrupt */
  59:source\asw/main.c ****     IRQ_UART_StartEx(isr_Uart_handler_onRX);
  60:source\asw/main.c ****     
  61:source\asw/main.c ****     /* Activates and Enables DMA Interrupt */
  62:source\asw/main.c ****     IRQ_DMA_StartEx(isr_DMA_handler_onEOC);
  63:source\asw/main.c ****     
  64:source\asw/main.c ****     /* Initialization of peripherals - DAC,UART,ADC, DMA */
  65:source\asw/main.c ****     /* Starts ADC sampling in continous mode, and */ 
  66:source\asw/main.c ****     /* Initialises DMA to read Sampled ADC value into SRAM*/
  67:source\asw/main.c ****     peripheral_init();
  68:source\asw/main.c ****     
  69:source\asw/main.c ****     /** Indicator LED the Initial State of the movement detector  */
  70:source\asw/main.c ****     /* Red - On , Green - Off , Yellow - Off */        
  71:source\asw/main.c ****     ledIndictor_systemIsIdle();
  72:source\asw/main.c **** 
  73:source\asw/main.c ****     for(;;)
  74:source\asw/main.c ****     {
  75:source\asw/main.c ****         /* State machine for movement detection */
  76:source\asw/main.c ****         movementDetector_StateMachine(AdcSamplesFromDMA,(ADC_SAMPLE_BUFF_SIZE *sizeof(uint16)));
  77:source\asw/main.c ****     }
  78:source\asw/main.c **** }
  79:source\asw/main.c **** 
  80:source\asw/main.c **** /**
  81:source\asw/main.c ****  * Initialization of peripherals - DAC, UART,ADC
  82:source\asw/main.c ****  * Starts ADC sampling in continous mode
  83:source\asw/main.c ****  * @return void
  84:source\asw/main.c ****  */
  85:source\asw/main.c **** void peripheral_init()
  86:source\asw/main.c **** {
  87:source\asw/main.c ****     /* Initializes the waveform DAC */
ARM GAS  C:\Users\AADARS~1\AppData\Local\Temp\ccy34hAN.s 			page 3


  88:source\asw/main.c ****     WaveDAC_Start();
  89:source\asw/main.c ****     
  90:source\asw/main.c ****     /* Initializes the UART */
  91:source\asw/main.c ****     UART_Start();
  92:source\asw/main.c ****     
  93:source\asw/main.c ****     /*Initializes ADC in continous mode */
  94:source\asw/main.c ****     ADC_DelSig_Start();
  95:source\asw/main.c ****     
  96:source\asw/main.c ****     /*DMA initialization to read the ADC sampled values and store it in SRAM */
  97:source\asw/main.c ****     DMA_Initialize(AdcSamplesFromDMA,(ADC_SAMPLE_BUFF_SIZE *sizeof(uint16)));
  98:source\asw/main.c **** }
  99:source\asw/main.c **** 
 100:source\asw/main.c **** /**
 101:source\asw/main.c ****  * Interrupt Service Routine (ISR) for Button
 102:source\asw/main.c ****  * @return void
 103:source\asw/main.c ****  */
 104:source\asw/main.c **** void isr_Button_handler()
 105:source\asw/main.c **** {
  28              		.loc 1 105 0
  29              		.cfi_startproc
  30              		@ args = 0, pretend = 0, frame = 0
  31              		@ frame_needed = 0, uses_anonymous_args = 0
  32 0000 08B5     		push	{r3, lr}
  33              		.cfi_def_cfa_offset 8
  34              		.cfi_offset 3, -8
  35              		.cfi_offset 14, -4
 106:source\asw/main.c ****     IRQ_BUTTON_ClearPending();
  36              		.loc 1 106 0
  37 0002 FFF7FEFF 		bl	IRQ_BUTTON_ClearPending
  38              	.LVL0:
 107:source\asw/main.c ****     
 108:source\asw/main.c ****     /* sets the Button pressed flag */
 109:source\asw/main.c ****     setEvent(EV_BUTTON);
  39              		.loc 1 109 0
  40 0006 0020     		movs	r0, #0
  41 0008 FFF7FEFF 		bl	setEvent
  42              	.LVL1:
  43 000c 08BD     		pop	{r3, pc}
  44              		.cfi_endproc
  45              	.LFE65:
  46              		.size	isr_Button_handler, .-isr_Button_handler
  47 000e 00BF     		.section	.text.isr_Uart_handler_onRX,"ax",%progbits
  48              		.align	2
  49              		.global	isr_Uart_handler_onRX
  50              		.thumb
  51              		.thumb_func
  52              		.type	isr_Uart_handler_onRX, %function
  53              	isr_Uart_handler_onRX:
  54              	.LFB66:
 110:source\asw/main.c **** }
 111:source\asw/main.c **** 
 112:source\asw/main.c **** /**
 113:source\asw/main.c ****  * Interrupt Service Routine (ISR) for UART
 114:source\asw/main.c ****  * @return void
 115:source\asw/main.c ****  */
 116:source\asw/main.c **** void isr_Uart_handler_onRX()
 117:source\asw/main.c **** {
ARM GAS  C:\Users\AADARS~1\AppData\Local\Temp\ccy34hAN.s 			page 4


  55              		.loc 1 117 0
  56              		.cfi_startproc
  57              		@ args = 0, pretend = 0, frame = 0
  58              		@ frame_needed = 0, uses_anonymous_args = 0
  59 0000 08B5     		push	{r3, lr}
  60              		.cfi_def_cfa_offset 8
  61              		.cfi_offset 3, -8
  62              		.cfi_offset 14, -4
 118:source\asw/main.c ****     IRQ_UART_ClearPending();
  63              		.loc 1 118 0
  64 0002 FFF7FEFF 		bl	IRQ_UART_ClearPending
  65              	.LVL2:
 119:source\asw/main.c ****     
 120:source\asw/main.c ****     /* Sets the UART reception Flag */
 121:source\asw/main.c ****     setEvent(EV_UART_RX);
  66              		.loc 1 121 0
  67 0006 0120     		movs	r0, #1
  68 0008 FFF7FEFF 		bl	setEvent
  69              	.LVL3:
  70 000c 08BD     		pop	{r3, pc}
  71              		.cfi_endproc
  72              	.LFE66:
  73              		.size	isr_Uart_handler_onRX, .-isr_Uart_handler_onRX
  74 000e 00BF     		.section	.text.isr_DMA_handler_onEOC,"ax",%progbits
  75              		.align	2
  76              		.global	isr_DMA_handler_onEOC
  77              		.thumb
  78              		.thumb_func
  79              		.type	isr_DMA_handler_onEOC, %function
  80              	isr_DMA_handler_onEOC:
  81              	.LFB67:
 122:source\asw/main.c **** }
 123:source\asw/main.c **** 
 124:source\asw/main.c **** /**
 125:source\asw/main.c ****  * Interrupt Service Routine (ISR) for DMA
 126:source\asw/main.c ****  * @return void
 127:source\asw/main.c ****  */
 128:source\asw/main.c **** void isr_DMA_handler_onEOC()
 129:source\asw/main.c **** {   
  82              		.loc 1 129 0
  83              		.cfi_startproc
  84              		@ args = 0, pretend = 0, frame = 0
  85              		@ frame_needed = 0, uses_anonymous_args = 0
  86 0000 08B5     		push	{r3, lr}
  87              		.cfi_def_cfa_offset 8
  88              		.cfi_offset 3, -8
  89              		.cfi_offset 14, -4
 130:source\asw/main.c ****     IRQ_DMA_ClearPending();
  90              		.loc 1 130 0
  91 0002 FFF7FEFF 		bl	IRQ_DMA_ClearPending
  92              	.LVL4:
 131:source\asw/main.c ****     
 132:source\asw/main.c ****     /* sets the DMA completion flag */
 133:source\asw/main.c ****     setEvent(EV_DMA_COMPLETE);
  93              		.loc 1 133 0
  94 0006 0220     		movs	r0, #2
  95 0008 FFF7FEFF 		bl	setEvent
ARM GAS  C:\Users\AADARS~1\AppData\Local\Temp\ccy34hAN.s 			page 5


  96              	.LVL5:
  97 000c 08BD     		pop	{r3, pc}
  98              		.cfi_endproc
  99              	.LFE67:
 100              		.size	isr_DMA_handler_onEOC, .-isr_DMA_handler_onEOC
 101 000e 00BF     		.section	.text.peripheral_init,"ax",%progbits
 102              		.align	2
 103              		.global	peripheral_init
 104              		.thumb
 105              		.thumb_func
 106              		.type	peripheral_init, %function
 107              	peripheral_init:
 108              	.LFB64:
  86:source\asw/main.c ****     /* Initializes the waveform DAC */
 109              		.loc 1 86 0
 110              		.cfi_startproc
 111              		@ args = 0, pretend = 0, frame = 0
 112              		@ frame_needed = 0, uses_anonymous_args = 0
 113 0000 08B5     		push	{r3, lr}
 114              		.cfi_def_cfa_offset 8
 115              		.cfi_offset 3, -8
 116              		.cfi_offset 14, -4
  88:source\asw/main.c ****     
 117              		.loc 1 88 0
 118 0002 FFF7FEFF 		bl	WaveDAC_Start
 119              	.LVL6:
  91:source\asw/main.c ****     
 120              		.loc 1 91 0
 121 0006 FFF7FEFF 		bl	UART_Start
 122              	.LVL7:
  94:source\asw/main.c ****     
 123              		.loc 1 94 0
 124 000a FFF7FEFF 		bl	ADC_DelSig_Start
 125              	.LVL8:
  97:source\asw/main.c **** }
 126              		.loc 1 97 0
 127 000e 4FF40061 		mov	r1, #2048
 128 0012 0248     		ldr	r0, .L9
 129 0014 FFF7FEFF 		bl	DMA_Initialize
 130              	.LVL9:
 131 0018 08BD     		pop	{r3, pc}
 132              	.L10:
 133 001a 00BF     		.align	2
 134              	.L9:
 135 001c 00000000 		.word	AdcSamplesFromDMA
 136              		.cfi_endproc
 137              	.LFE64:
 138              		.size	peripheral_init, .-peripheral_init
 139              		.section	.text.main,"ax",%progbits
 140              		.align	2
 141              		.global	main
 142              		.thumb
 143              		.thumb_func
 144              		.type	main, %function
 145              	main:
 146              	.LFB63:
  51:source\asw/main.c ****     /* Enable global interrupts. */
ARM GAS  C:\Users\AADARS~1\AppData\Local\Temp\ccy34hAN.s 			page 6


 147              		.loc 1 51 0
 148              		.cfi_startproc
 149              		@ Volatile: function does not return.
 150              		@ args = 0, pretend = 0, frame = 0
 151              		@ frame_needed = 0, uses_anonymous_args = 0
 152 0000 08B5     		push	{r3, lr}
 153              		.cfi_def_cfa_offset 8
 154              		.cfi_offset 3, -8
 155              		.cfi_offset 14, -4
  53:source\asw/main.c **** 
 156              		.loc 1 53 0
 157              		.syntax unified
 158              	@ 53 "source\asw\main.c" 1
 159 0002 62B6     		CPSIE   i
 160              	@ 0 "" 2
  56:source\asw/main.c ****     
 161              		.loc 1 56 0
 162              		.thumb
 163              		.syntax unified
 164 0004 0948     		ldr	r0, .L14
 165 0006 FFF7FEFF 		bl	IRQ_BUTTON_StartEx
 166              	.LVL10:
  59:source\asw/main.c ****     
 167              		.loc 1 59 0
 168 000a 0948     		ldr	r0, .L14+4
 169 000c FFF7FEFF 		bl	IRQ_UART_StartEx
 170              	.LVL11:
  62:source\asw/main.c ****     
 171              		.loc 1 62 0
 172 0010 0848     		ldr	r0, .L14+8
 173 0012 FFF7FEFF 		bl	IRQ_DMA_StartEx
 174              	.LVL12:
  67:source\asw/main.c ****     
 175              		.loc 1 67 0
 176 0016 FFF7FEFF 		bl	peripheral_init
 177              	.LVL13:
  71:source\asw/main.c **** 
 178              		.loc 1 71 0
 179 001a FFF7FEFF 		bl	ledIndictor_systemIsIdle
 180              	.LVL14:
 181              	.L12:
  76:source\asw/main.c ****     }
 182              		.loc 1 76 0 discriminator 1
 183 001e 4FF40061 		mov	r1, #2048
 184 0022 0548     		ldr	r0, .L14+12
 185 0024 FFF7FEFF 		bl	movementDetector_StateMachine
 186              	.LVL15:
 187 0028 F9E7     		b	.L12
 188              	.L15:
 189 002a 00BF     		.align	2
 190              	.L14:
 191 002c 00000000 		.word	isr_Button_handler
 192 0030 00000000 		.word	isr_Uart_handler_onRX
 193 0034 00000000 		.word	isr_DMA_handler_onEOC
 194 0038 00000000 		.word	AdcSamplesFromDMA
 195              		.cfi_endproc
 196              	.LFE63:
ARM GAS  C:\Users\AADARS~1\AppData\Local\Temp\ccy34hAN.s 			page 7


 197              		.size	main, .-main
 198              		.comm	AdcSamplesFromDMA,2048,4
 199              		.text
 200              	.Letext0:
 201              		.file 2 "c:\\program files (x86)\\cypress\\psoc creator\\4.3\\psoc creator\\import\\gnu\\arm\\5.4.
 202              		.file 3 "c:\\program files (x86)\\cypress\\psoc creator\\4.3\\psoc creator\\import\\gnu\\arm\\5.4.
 203              		.file 4 "Generated_Source\\PSoC5/cytypes.h"
 204              		.file 5 "Generated_Source\\PSoC5/core_cm3.h"
 205              		.file 6 "Generated_Source\\PSoC5/IRQ_BUTTON.h"
 206              		.file 7 "source\\asw\\movementDetector.h"
 207              		.file 8 "Generated_Source\\PSoC5/IRQ_UART.h"
 208              		.file 9 "Generated_Source\\PSoC5/IRQ_DMA.h"
 209              		.file 10 "Generated_Source\\PSoC5/WaveDAC.h"
 210              		.file 11 "Generated_Source\\PSoC5/UART.h"
 211              		.file 12 "Generated_Source\\PSoC5/ADC_DelSig.h"
 212              		.file 13 ".\\source\\bsw/dma.h"