ARM GAS  C:\Users\AADARS~1\AppData\Local\Temp\ccGpenw5.s 			page 1


   1              		.syntax unified
   2              		.cpu cortex-m3
   3              		.fpu softvfp
   4              		.eabi_attribute 20, 1
   5              		.eabi_attribute 21, 1
   6              		.eabi_attribute 23, 3
   7              		.eabi_attribute 24, 1
   8              		.eabi_attribute 25, 1
   9              		.eabi_attribute 26, 1
  10              		.eabi_attribute 30, 1
  11              		.eabi_attribute 34, 1
  12              		.eabi_attribute 18, 4
  13              		.thumb
  14              		.syntax unified
  15              		.file	"movementDetector.c"
  16              		.text
  17              	.Ltext0:
  18              		.cfi_sections	.debug_frame
  19              		.section	.text.setEvent,"ax",%progbits
  20              		.align	2
  21              		.global	setEvent
  22              		.thumb
  23              		.thumb_func
  24              		.type	setEvent, %function
  25              	setEvent:
  26              	.LFB64:
  27              		.file 1 "source\\asw\\movementDetector.c"
   1:source\asw/movementDetector.c **** /**
   2:source\asw/movementDetector.c **** * \file movementDetector.c
   3:source\asw/movementDetector.c **** * \author Aadarsh Kumar Singh
   4:source\asw/movementDetector.c **** * \date 11.06.2020
   5:source\asw/movementDetector.c **** **/
   6:source\asw/movementDetector.c **** 
   7:source\asw/movementDetector.c **** #include "project.h"
   8:source\asw/movementDetector.c **** #include "movementDetector.h"
   9:source\asw/movementDetector.c **** #include "led.h"
  10:source\asw/movementDetector.c **** #include "dma.h"
  11:source\asw/movementDetector.c **** 
  12:source\asw/movementDetector.c **** /** Maximum number of times the data is sent to testbench*/
  13:source\asw/movementDetector.c **** #define MAXIMUM_COUNTS 10 
  14:source\asw/movementDetector.c **** 
  15:source\asw/movementDetector.c **** /** Maximum number of frequency variation possible*/
  16:source\asw/movementDetector.c **** #define MAXIMUM_FREQ_VARIATION 10
  17:source\asw/movementDetector.c **** 
  18:source\asw/movementDetector.c **** /* Counter value for checking the no of times data is tx to matlab */
  19:source\asw/movementDetector.c **** static  uint8_t counter = 0;
  20:source\asw/movementDetector.c **** 
  21:source\asw/movementDetector.c **** /* Flag for detection of Button Press,
  22:source\asw/movementDetector.c ****    default state - False, on button Press : True */
  23:source\asw/movementDetector.c **** volatile boolean_t buttonPressedFlag = FALSE ;
  24:source\asw/movementDetector.c **** 
  25:source\asw/movementDetector.c **** /* Flag for detection of DMA completion ,
  26:source\asw/movementDetector.c ****    default state - False, on DMA completion : True */
  27:source\asw/movementDetector.c **** volatile boolean_t dmaCompletionFlag = FALSE;
  28:source\asw/movementDetector.c **** 
  29:source\asw/movementDetector.c **** /* Flag for detection of UART,
  30:source\asw/movementDetector.c ****    default state - False, on receiving data on COM port : True */
ARM GAS  C:\Users\AADARS~1\AppData\Local\Temp\ccGpenw5.s 			page 2


  31:source\asw/movementDetector.c **** volatile boolean_t UART_RX_Flag = FALSE ;
  32:source\asw/movementDetector.c **** 
  33:source\asw/movementDetector.c **** /* Enum that defines States for the state machine */
  34:source\asw/movementDetector.c **** typedef enum state_e{
  35:source\asw/movementDetector.c ****     STATE_IDLE,                     /* Waiting for starting the measurement */
  36:source\asw/movementDetector.c ****     STATE_MEASUREMENT,              /* Measurement started waiting for the Reciever to send 's' by 
  37:source\asw/movementDetector.c ****     STATE_WAIT_FOR_MEASUREMENT_END, /* Waiting for the DMA to finish reading ADC samples */
  38:source\asw/movementDetector.c ****     STATE_TRANSFER_DATA,            /* Waiting for the PSoC to finish transmiting ADC samples */
  39:source\asw/movementDetector.c **** } state_t ;
  40:source\asw/movementDetector.c **** 
  41:source\asw/movementDetector.c **** /**
  42:source\asw/movementDetector.c ****  * State machine for the movement detection 
  43:source\asw/movementDetector.c ****  * @param : uint16* buffer - pointer to the buffer containing ADC samples 
  44:source\asw/movementDetector.c ****  * @param : uint16 length  - length of the buffer containing ADC samples
  45:source\asw/movementDetector.c ****  * @return void
  46:source\asw/movementDetector.c ****  */
  47:source\asw/movementDetector.c **** void movementDetector_StateMachine(uint16 * buffer , uint16 length)
  48:source\asw/movementDetector.c **** {
  49:source\asw/movementDetector.c ****     /* Stores the state */
  50:source\asw/movementDetector.c ****     static state_t state = STATE_IDLE ;
  51:source\asw/movementDetector.c ****     static  uint8_t autoFreqChang = 0;
  52:source\asw/movementDetector.c ****     
  53:source\asw/movementDetector.c ****     switch(state)
  54:source\asw/movementDetector.c ****     {
  55:source\asw/movementDetector.c ****         case STATE_IDLE :    
  56:source\asw/movementDetector.c ****             /* Waiting for the button to be pressed by the user to start measurement */
  57:source\asw/movementDetector.c ****             if (getEvent(EV_BUTTON))
  58:source\asw/movementDetector.c ****             {
  59:source\asw/movementDetector.c ****                 /** Indicator LED - ready for measurement (Button has been pressed by user) */
  60:source\asw/movementDetector.c ****                 /*  Red - Off , Green - Off , Yellow - On */
  61:source\asw/movementDetector.c ****                 ledIndicator_ReadyForMeasurement();
  62:source\asw/movementDetector.c ****                 
  63:source\asw/movementDetector.c ****                 // Clear the button Event 
  64:source\asw/movementDetector.c ****                 clearEvent(EV_BUTTON);
  65:source\asw/movementDetector.c ****                                 
  66:source\asw/movementDetector.c ****                 /* Starts the ADC sampling in continous mode */
  67:source\asw/movementDetector.c ****                 ADC_DelSig_StartConvert(); 
  68:source\asw/movementDetector.c ****                 
  69:source\asw/movementDetector.c ****                 /* Change frequency by incrementing control register value to adjust Mux */
  70:source\asw/movementDetector.c ****                 MuxControlRegister_Write(autoFreqChang);
  71:source\asw/movementDetector.c ****                 autoFreqChang ++;
  72:source\asw/movementDetector.c ****                 
  73:source\asw/movementDetector.c ****                 /*Reset After 10 possible frequency variations*/
  74:source\asw/movementDetector.c ****                 if(autoFreqChang == MAXIMUM_FREQ_VARIATION)
  75:source\asw/movementDetector.c ****                 {
  76:source\asw/movementDetector.c ****                     autoFreqChang = 0;
  77:source\asw/movementDetector.c ****                 }
  78:source\asw/movementDetector.c **** 
  79:source\asw/movementDetector.c ****                 state = STATE_MEASUREMENT ; 
  80:source\asw/movementDetector.c ****             }                    
  81:source\asw/movementDetector.c ****             break;
  82:source\asw/movementDetector.c ****      
  83:source\asw/movementDetector.c ****         case STATE_MEASUREMENT:            
  84:source\asw/movementDetector.c **** 
  85:source\asw/movementDetector.c ****             /* start reading ADC samples on receiving 's' from matlab */
  86:source\asw/movementDetector.c ****             /* The decision of enabling DMA as soons as s is received from matlab
  87:source\asw/movementDetector.c ****             * was made so that we send the latest ADC samples on request from matlab */
ARM GAS  C:\Users\AADARS~1\AppData\Local\Temp\ccGpenw5.s 			page 3


  88:source\asw/movementDetector.c ****           
  89:source\asw/movementDetector.c ****             /* Waiting for the Reciever to send 's' by UART */
  90:source\asw/movementDetector.c ****             if (getEvent(EV_UART_RX) && UART_GetChar() == 's' )
  91:source\asw/movementDetector.c ****             {
  92:source\asw/movementDetector.c ****                 /* Clear the Receiver(MATLAB) Ready event */
  93:source\asw/movementDetector.c ****                 clearEvent(EV_UART_RX);
  94:source\asw/movementDetector.c **** 
  95:source\asw/movementDetector.c ****                 /* Enable DMA to start reading ADC samples */
  96:source\asw/movementDetector.c ****                 DMA_Enable();
  97:source\asw/movementDetector.c ****                                 
  98:source\asw/movementDetector.c ****                 state = STATE_WAIT_FOR_MEASUREMENT_END ;
  99:source\asw/movementDetector.c ****             }    
 100:source\asw/movementDetector.c ****             break;
 101:source\asw/movementDetector.c ****      
 102:source\asw/movementDetector.c ****         case STATE_WAIT_FOR_MEASUREMENT_END :
 103:source\asw/movementDetector.c ****           
 104:source\asw/movementDetector.c ****             /* Check if DMA has completed reading the ADC samples */
 105:source\asw/movementDetector.c ****             if (getEvent(EV_DMA_COMPLETE))
 106:source\asw/movementDetector.c ****             {
 107:source\asw/movementDetector.c ****                 /* Clear the DMA Completion event */
 108:source\asw/movementDetector.c ****                 clearEvent(EV_DMA_COMPLETE);
 109:source\asw/movementDetector.c ****             
 110:source\asw/movementDetector.c **** 
 111:source\asw/movementDetector.c ****                 /** Indicator Led - PSoC ready to send ADC samples */
 112:source\asw/movementDetector.c ****                 /* Red - Off, Green - On , Yellow - Off */
 113:source\asw/movementDetector.c ****                 ledIndicator_readyToSend();
 114:source\asw/movementDetector.c ****                 
 115:source\asw/movementDetector.c ****                 /* Send the sampled values to the reciever(MATLAB) */
 116:source\asw/movementDetector.c ****                 UART_PutArray((uint8*)buffer, length);              
 117:source\asw/movementDetector.c ****             
 118:source\asw/movementDetector.c ****                 state = STATE_TRANSFER_DATA;
 119:source\asw/movementDetector.c ****             }  
 120:source\asw/movementDetector.c ****             break;
 121:source\asw/movementDetector.c ****      
 122:source\asw/movementDetector.c ****         case STATE_TRANSFER_DATA : 
 123:source\asw/movementDetector.c ****           
 124:source\asw/movementDetector.c ****           /* Waiting for Acknowledgment (Reciever to send 'o' by UART) */
 125:source\asw/movementDetector.c ****           if (getEvent(EV_UART_RX) && UART_GetChar() == 'o')
 126:source\asw/movementDetector.c ****           {
 127:source\asw/movementDetector.c ****             clearEvent(EV_UART_RX);           
 128:source\asw/movementDetector.c ****             state = STATE_MEASUREMENT ;
 129:source\asw/movementDetector.c ****             counter++;
 130:source\asw/movementDetector.c ****           }          
 131:source\asw/movementDetector.c ****           if(counter == MAXIMUM_COUNTS)
 132:source\asw/movementDetector.c ****           {
 133:source\asw/movementDetector.c ****             state = STATE_IDLE;
 134:source\asw/movementDetector.c ****             counter = 0;
 135:source\asw/movementDetector.c ****             clearEvent(EV_ALL);
 136:source\asw/movementDetector.c ****           }
 137:source\asw/movementDetector.c ****         
 138:source\asw/movementDetector.c ****           break;
 139:source\asw/movementDetector.c ****     }
 140:source\asw/movementDetector.c ****         
 141:source\asw/movementDetector.c **** }
 142:source\asw/movementDetector.c **** 
 143:source\asw/movementDetector.c **** /**
 144:source\asw/movementDetector.c ****  * Sets Flag when the interrupt for the event arrives
ARM GAS  C:\Users\AADARS~1\AppData\Local\Temp\ccGpenw5.s 			page 4


 145:source\asw/movementDetector.c ****  * @param : event
 146:source\asw/movementDetector.c ****  * @return void
 147:source\asw/movementDetector.c ****  */
 148:source\asw/movementDetector.c **** void setEvent(event_t event)
 149:source\asw/movementDetector.c **** {
  28              		.loc 1 149 0
  29              		.cfi_startproc
  30              		@ args = 0, pretend = 0, frame = 0
  31              		@ frame_needed = 0, uses_anonymous_args = 0
  32              	.LVL0:
  33 0000 08B5     		push	{r3, lr}
  34              		.cfi_def_cfa_offset 8
  35              		.cfi_offset 3, -8
  36              		.cfi_offset 14, -4
 150:source\asw/movementDetector.c ****     switch(event)
  37              		.loc 1 150 0
  38 0002 0128     		cmp	r0, #1
  39 0004 0BD0     		beq	.L3
  40 0006 10B1     		cbz	r0, .L4
  41 0008 0228     		cmp	r0, #2
  42 000a 04D0     		beq	.L5
  43 000c 0BE0     		b	.L7
  44              	.L4:
 151:source\asw/movementDetector.c ****     {
 152:source\asw/movementDetector.c ****         /* sets the Button pressed flag */
 153:source\asw/movementDetector.c ****         case EV_BUTTON :
 154:source\asw/movementDetector.c ****         
 155:source\asw/movementDetector.c ****             buttonPressedFlag = TRUE;
  45              		.loc 1 155 0
  46 000e 0122     		movs	r2, #1
  47 0010 074B     		ldr	r3, .L9
  48 0012 1A70     		strb	r2, [r3]
 156:source\asw/movementDetector.c ****             break;
  49              		.loc 1 156 0
  50 0014 08BD     		pop	{r3, pc}
  51              	.L5:
 157:source\asw/movementDetector.c ****         
 158:source\asw/movementDetector.c ****         /* sets the DMA completion flag */
 159:source\asw/movementDetector.c ****         case EV_DMA_COMPLETE :
 160:source\asw/movementDetector.c ****             
 161:source\asw/movementDetector.c ****             dmaCompletionFlag = TRUE;
  52              		.loc 1 161 0
  53 0016 0122     		movs	r2, #1
  54 0018 054B     		ldr	r3, .L9
  55 001a 5A70     		strb	r2, [r3, #1]
 162:source\asw/movementDetector.c ****             break;
  56              		.loc 1 162 0
  57 001c 08BD     		pop	{r3, pc}
  58              	.L3:
 163:source\asw/movementDetector.c ****         
 164:source\asw/movementDetector.c ****         /* Sets the UART reception Flag */
 165:source\asw/movementDetector.c ****         case EV_UART_RX :
 166:source\asw/movementDetector.c ****             UART_RX_Flag = TRUE;
  59              		.loc 1 166 0
  60 001e 0122     		movs	r2, #1
  61 0020 034B     		ldr	r3, .L9
  62 0022 9A70     		strb	r2, [r3, #2]
ARM GAS  C:\Users\AADARS~1\AppData\Local\Temp\ccGpenw5.s 			page 5


 167:source\asw/movementDetector.c ****             break ;          
  63              		.loc 1 167 0
  64 0024 08BD     		pop	{r3, pc}
  65              	.L7:
 168:source\asw/movementDetector.c ****         
 169:source\asw/movementDetector.c ****         /* Invalid Event */ 
 170:source\asw/movementDetector.c ****         default: 
 171:source\asw/movementDetector.c ****             UART_PutString("Invalid Event ");
  66              		.loc 1 171 0
  67 0026 0348     		ldr	r0, .L9+4
  68              	.LVL1:
  69 0028 FFF7FEFF 		bl	UART_PutString
  70              	.LVL2:
  71 002c 08BD     		pop	{r3, pc}
  72              	.L10:
  73 002e 00BF     		.align	2
  74              	.L9:
  75 0030 00000000 		.word	.LANCHOR0
  76 0034 00000000 		.word	.LC0
  77              		.cfi_endproc
  78              	.LFE64:
  79              		.size	setEvent, .-setEvent
  80              		.section	.text.clearEvent,"ax",%progbits
  81              		.align	2
  82              		.global	clearEvent
  83              		.thumb
  84              		.thumb_func
  85              		.type	clearEvent, %function
  86              	clearEvent:
  87              	.LFB65:
 172:source\asw/movementDetector.c ****             break ;   
 173:source\asw/movementDetector.c ****     }
 174:source\asw/movementDetector.c ****        
 175:source\asw/movementDetector.c **** }
 176:source\asw/movementDetector.c **** 
 177:source\asw/movementDetector.c **** /**
 178:source\asw/movementDetector.c ****  * Clears the Flag when the interrupt for the event arrives
 179:source\asw/movementDetector.c ****  * @param : event
 180:source\asw/movementDetector.c ****  * @return void
 181:source\asw/movementDetector.c ****  */
 182:source\asw/movementDetector.c **** void clearEvent(event_t event)
 183:source\asw/movementDetector.c **** {
  88              		.loc 1 183 0
  89              		.cfi_startproc
  90              		@ args = 0, pretend = 0, frame = 0
  91              		@ frame_needed = 0, uses_anonymous_args = 0
  92              	.LVL3:
  93 0000 08B5     		push	{r3, lr}
  94              		.cfi_def_cfa_offset 8
  95              		.cfi_offset 3, -8
  96              		.cfi_offset 14, -4
 184:source\asw/movementDetector.c ****     switch(event)
  97              		.loc 1 184 0
  98 0002 0328     		cmp	r0, #3
  99 0004 15D8     		bhi	.L12
 100 0006 DFE800F0 		tbb	[pc, r0]
 101              	.L14:
ARM GAS  C:\Users\AADARS~1\AppData\Local\Temp\ccGpenw5.s 			page 6


 102 000a 02       		.byte	(.L13-.L14)/2
 103 000b 0A       		.byte	(.L15-.L14)/2
 104 000c 06       		.byte	(.L16-.L14)/2
 105 000d 0E       		.byte	(.L17-.L14)/2
 106              		.p2align 1
 107              	.L13:
 185:source\asw/movementDetector.c ****     {
 186:source\asw/movementDetector.c ****         /* Clears the Button pressed flag */
 187:source\asw/movementDetector.c ****         case EV_BUTTON :
 188:source\asw/movementDetector.c ****         
 189:source\asw/movementDetector.c ****             buttonPressedFlag = FALSE;
 108              		.loc 1 189 0
 109 000e 0022     		movs	r2, #0
 110 0010 0A4B     		ldr	r3, .L20
 111 0012 1A70     		strb	r2, [r3]
 190:source\asw/movementDetector.c ****             break;
 112              		.loc 1 190 0
 113 0014 08BD     		pop	{r3, pc}
 114              	.L16:
 191:source\asw/movementDetector.c ****         
 192:source\asw/movementDetector.c ****         /* Clears the DMA completion flag */
 193:source\asw/movementDetector.c ****         case EV_DMA_COMPLETE :
 194:source\asw/movementDetector.c ****             
 195:source\asw/movementDetector.c ****             dmaCompletionFlag = FALSE;
 115              		.loc 1 195 0
 116 0016 0022     		movs	r2, #0
 117 0018 084B     		ldr	r3, .L20
 118 001a 5A70     		strb	r2, [r3, #1]
 196:source\asw/movementDetector.c ****             break;
 119              		.loc 1 196 0
 120 001c 08BD     		pop	{r3, pc}
 121              	.L15:
 197:source\asw/movementDetector.c ****         
 198:source\asw/movementDetector.c ****         /* Clears the UART reception flag */
 199:source\asw/movementDetector.c ****         case EV_UART_RX :
 200:source\asw/movementDetector.c ****             UART_RX_Flag = FALSE;
 122              		.loc 1 200 0
 123 001e 0022     		movs	r2, #0
 124 0020 064B     		ldr	r3, .L20
 125 0022 9A70     		strb	r2, [r3, #2]
 201:source\asw/movementDetector.c ****             break ;
 126              		.loc 1 201 0
 127 0024 08BD     		pop	{r3, pc}
 128              	.L17:
 202:source\asw/movementDetector.c ****         
 203:source\asw/movementDetector.c ****         case EV_ALL :
 204:source\asw/movementDetector.c ****             buttonPressedFlag = FALSE;
 129              		.loc 1 204 0
 130 0026 054B     		ldr	r3, .L20
 131 0028 0022     		movs	r2, #0
 132 002a 1A70     		strb	r2, [r3]
 205:source\asw/movementDetector.c ****             dmaCompletionFlag = FALSE;
 133              		.loc 1 205 0
 134 002c 5A70     		strb	r2, [r3, #1]
 206:source\asw/movementDetector.c ****             UART_RX_Flag = FALSE;
 135              		.loc 1 206 0
 136 002e 9A70     		strb	r2, [r3, #2]
ARM GAS  C:\Users\AADARS~1\AppData\Local\Temp\ccGpenw5.s 			page 7


 207:source\asw/movementDetector.c ****             break;
 137              		.loc 1 207 0
 138 0030 08BD     		pop	{r3, pc}
 139              	.L12:
 208:source\asw/movementDetector.c ****         
 209:source\asw/movementDetector.c ****         /* Invalid Event */ 
 210:source\asw/movementDetector.c ****         default: 
 211:source\asw/movementDetector.c ****             UART_PutString("Invalid Event ");
 140              		.loc 1 211 0
 141 0032 0348     		ldr	r0, .L20+4
 142              	.LVL4:
 143 0034 FFF7FEFF 		bl	UART_PutString
 144              	.LVL5:
 145 0038 08BD     		pop	{r3, pc}
 146              	.L21:
 147 003a 00BF     		.align	2
 148              	.L20:
 149 003c 00000000 		.word	.LANCHOR0
 150 0040 00000000 		.word	.LC0
 151              		.cfi_endproc
 152              	.LFE65:
 153              		.size	clearEvent, .-clearEvent
 154              		.section	.text.getEvent,"ax",%progbits
 155              		.align	2
 156              		.global	getEvent
 157              		.thumb
 158              		.thumb_func
 159              		.type	getEvent, %function
 160              	getEvent:
 161              	.LFB66:
 212:source\asw/movementDetector.c ****             break ;   
 213:source\asw/movementDetector.c ****     }     
 214:source\asw/movementDetector.c **** }
 215:source\asw/movementDetector.c **** 
 216:source\asw/movementDetector.c **** /**
 217:source\asw/movementDetector.c ****  * Returns the value for the flag corresponding to the events
 218:source\asw/movementDetector.c ****  * @param : event
 219:source\asw/movementDetector.c ****  * @return boolean_t
 220:source\asw/movementDetector.c ****  */
 221:source\asw/movementDetector.c **** boolean_t getEvent(event_t event)
 222:source\asw/movementDetector.c **** {
 162              		.loc 1 222 0
 163              		.cfi_startproc
 164              		@ args = 0, pretend = 0, frame = 0
 165              		@ frame_needed = 0, uses_anonymous_args = 0
 166              	.LVL6:
 167 0000 08B5     		push	{r3, lr}
 168              		.cfi_def_cfa_offset 8
 169              		.cfi_offset 3, -8
 170              		.cfi_offset 14, -4
 171              	.LVL7:
 223:source\asw/movementDetector.c ****     boolean_t flag = FALSE  ;
 224:source\asw/movementDetector.c ****     switch(event)
 172              		.loc 1 224 0
 173 0002 0128     		cmp	r0, #1
 174 0004 0BD0     		beq	.L24
 175 0006 10B1     		cbz	r0, .L25
ARM GAS  C:\Users\AADARS~1\AppData\Local\Temp\ccGpenw5.s 			page 8


 176 0008 0228     		cmp	r0, #2
 177 000a 04D0     		beq	.L26
 178 000c 0BE0     		b	.L28
 179              	.L25:
 225:source\asw/movementDetector.c ****     {
 226:source\asw/movementDetector.c ****         /*Returns the state of button pressed flag*/
 227:source\asw/movementDetector.c ****         case EV_BUTTON :
 228:source\asw/movementDetector.c ****         
 229:source\asw/movementDetector.c ****             flag = buttonPressedFlag;
 180              		.loc 1 229 0
 181 000e 084B     		ldr	r3, .L30
 182 0010 1878     		ldrb	r0, [r3]	@ zero_extendqisi2
 183              	.LVL8:
 184 0012 C0B2     		uxtb	r0, r0
 185              	.LVL9:
 230:source\asw/movementDetector.c ****             break;
 186              		.loc 1 230 0
 187 0014 08BD     		pop	{r3, pc}
 188              	.LVL10:
 189              	.L26:
 231:source\asw/movementDetector.c ****         
 232:source\asw/movementDetector.c ****         /* Returns the state of dma completion*/
 233:source\asw/movementDetector.c ****         case EV_DMA_COMPLETE :
 234:source\asw/movementDetector.c ****             
 235:source\asw/movementDetector.c ****             flag = dmaCompletionFlag;
 190              		.loc 1 235 0
 191 0016 064B     		ldr	r3, .L30
 192 0018 5878     		ldrb	r0, [r3, #1]	@ zero_extendqisi2
 193              	.LVL11:
 194 001a C0B2     		uxtb	r0, r0
 195              	.LVL12:
 236:source\asw/movementDetector.c ****             break;
 196              		.loc 1 236 0
 197 001c 08BD     		pop	{r3, pc}
 198              	.LVL13:
 199              	.L24:
 237:source\asw/movementDetector.c ****         
 238:source\asw/movementDetector.c ****         /* Returns the state of UART reception */
 239:source\asw/movementDetector.c ****         case EV_UART_RX :
 240:source\asw/movementDetector.c ****             flag = UART_RX_Flag;
 200              		.loc 1 240 0
 201 001e 044B     		ldr	r3, .L30
 202 0020 9878     		ldrb	r0, [r3, #2]	@ zero_extendqisi2
 203              	.LVL14:
 204 0022 C0B2     		uxtb	r0, r0
 205              	.LVL15:
 241:source\asw/movementDetector.c ****             break ;
 206              		.loc 1 241 0
 207 0024 08BD     		pop	{r3, pc}
 208              	.LVL16:
 209              	.L28:
 242:source\asw/movementDetector.c ****         
 243:source\asw/movementDetector.c ****         /* Invalid Event */
 244:source\asw/movementDetector.c ****         default: 
 245:source\asw/movementDetector.c ****             UART_PutString("Invalid Event ");
 210              		.loc 1 245 0
 211 0026 0348     		ldr	r0, .L30+4
ARM GAS  C:\Users\AADARS~1\AppData\Local\Temp\ccGpenw5.s 			page 9


 212              	.LVL17:
 213 0028 FFF7FEFF 		bl	UART_PutString
 214              	.LVL18:
 223:source\asw/movementDetector.c ****     switch(event)
 215              		.loc 1 223 0
 216 002c 0020     		movs	r0, #0
 217              	.LVL19:
 246:source\asw/movementDetector.c ****             break ;   
 247:source\asw/movementDetector.c ****     }
 248:source\asw/movementDetector.c ****     
 249:source\asw/movementDetector.c ****     return flag ;
 250:source\asw/movementDetector.c **** }
 218              		.loc 1 250 0
 219 002e 08BD     		pop	{r3, pc}
 220              	.L31:
 221              		.align	2
 222              	.L30:
 223 0030 00000000 		.word	.LANCHOR0
 224 0034 00000000 		.word	.LC0
 225              		.cfi_endproc
 226              	.LFE66:
 227              		.size	getEvent, .-getEvent
 228              		.section	.text.ledIndictor_systemIsIdle,"ax",%progbits
 229              		.align	2
 230              		.global	ledIndictor_systemIsIdle
 231              		.thumb
 232              		.thumb_func
 233              		.type	ledIndictor_systemIsIdle, %function
 234              	ledIndictor_systemIsIdle:
 235              	.LFB67:
 251:source\asw/movementDetector.c **** 
 252:source\asw/movementDetector.c **** /**
 253:source\asw/movementDetector.c **** * Indicates the Initial(Idle) State of the movement detector 
 254:source\asw/movementDetector.c **** * Red - On , Green - Off , Yellow - Off
 255:source\asw/movementDetector.c **** */
 256:source\asw/movementDetector.c **** void ledIndictor_systemIsIdle()
 257:source\asw/movementDetector.c **** {
 236              		.loc 1 257 0
 237              		.cfi_startproc
 238              		@ args = 0, pretend = 0, frame = 0
 239              		@ frame_needed = 0, uses_anonymous_args = 0
 240 0000 08B5     		push	{r3, lr}
 241              		.cfi_def_cfa_offset 8
 242              		.cfi_offset 3, -8
 243              		.cfi_offset 14, -4
 258:source\asw/movementDetector.c ****     /* Red - On , Green - Off , Yellow - Off */
 259:source\asw/movementDetector.c ****     LED_Set(LED_GREEN,LED_OFF);
 244              		.loc 1 259 0
 245 0002 0021     		movs	r1, #0
 246 0004 0220     		movs	r0, #2
 247 0006 FFF7FEFF 		bl	LED_Set
 248              	.LVL20:
 260:source\asw/movementDetector.c ****     LED_Set(LED_RED,LED_ON);
 249              		.loc 1 260 0
 250 000a 0121     		movs	r1, #1
 251 000c 0020     		movs	r0, #0
 252 000e FFF7FEFF 		bl	LED_Set
ARM GAS  C:\Users\AADARS~1\AppData\Local\Temp\ccGpenw5.s 			page 10


 253              	.LVL21:
 261:source\asw/movementDetector.c ****     LED_Set(LED_YELLOW,LED_OFF);     
 254              		.loc 1 261 0
 255 0012 0021     		movs	r1, #0
 256 0014 0120     		movs	r0, #1
 257 0016 FFF7FEFF 		bl	LED_Set
 258              	.LVL22:
 259 001a 08BD     		pop	{r3, pc}
 260              		.cfi_endproc
 261              	.LFE67:
 262              		.size	ledIndictor_systemIsIdle, .-ledIndictor_systemIsIdle
 263              		.section	.text.ledIndicator_ReadyForMeasurement,"ax",%progbits
 264              		.align	2
 265              		.global	ledIndicator_ReadyForMeasurement
 266              		.thumb
 267              		.thumb_func
 268              		.type	ledIndicator_ReadyForMeasurement, %function
 269              	ledIndicator_ReadyForMeasurement:
 270              	.LFB68:
 262:source\asw/movementDetector.c **** }
 263:source\asw/movementDetector.c **** 
 264:source\asw/movementDetector.c **** /**
 265:source\asw/movementDetector.c **** * Indicates that its ready for measurement , i.e. Button has been pressed
 266:source\asw/movementDetector.c **** * Red - Off , Green - Off , Yellow - On
 267:source\asw/movementDetector.c **** */
 268:source\asw/movementDetector.c **** void ledIndicator_ReadyForMeasurement()
 269:source\asw/movementDetector.c **** {
 271              		.loc 1 269 0
 272              		.cfi_startproc
 273              		@ args = 0, pretend = 0, frame = 0
 274              		@ frame_needed = 0, uses_anonymous_args = 0
 275 0000 08B5     		push	{r3, lr}
 276              		.cfi_def_cfa_offset 8
 277              		.cfi_offset 3, -8
 278              		.cfi_offset 14, -4
 270:source\asw/movementDetector.c ****     LED_Set(LED_GREEN,LED_OFF);
 279              		.loc 1 270 0
 280 0002 0021     		movs	r1, #0
 281 0004 0220     		movs	r0, #2
 282 0006 FFF7FEFF 		bl	LED_Set
 283              	.LVL23:
 271:source\asw/movementDetector.c ****     LED_Set(LED_RED,LED_OFF);
 284              		.loc 1 271 0
 285 000a 0021     		movs	r1, #0
 286 000c 0846     		mov	r0, r1
 287 000e FFF7FEFF 		bl	LED_Set
 288              	.LVL24:
 272:source\asw/movementDetector.c ****     LED_Set(LED_YELLOW,LED_ON);   
 289              		.loc 1 272 0
 290 0012 0121     		movs	r1, #1
 291 0014 0846     		mov	r0, r1
 292 0016 FFF7FEFF 		bl	LED_Set
 293              	.LVL25:
 294 001a 08BD     		pop	{r3, pc}
 295              		.cfi_endproc
 296              	.LFE68:
 297              		.size	ledIndicator_ReadyForMeasurement, .-ledIndicator_ReadyForMeasurement
ARM GAS  C:\Users\AADARS~1\AppData\Local\Temp\ccGpenw5.s 			page 11


 298              		.section	.text.ledIndicator_readyToSend,"ax",%progbits
 299              		.align	2
 300              		.global	ledIndicator_readyToSend
 301              		.thumb
 302              		.thumb_func
 303              		.type	ledIndicator_readyToSend, %function
 304              	ledIndicator_readyToSend:
 305              	.LFB69:
 273:source\asw/movementDetector.c ****     
 274:source\asw/movementDetector.c **** }
 275:source\asw/movementDetector.c **** 
 276:source\asw/movementDetector.c **** /**
 277:source\asw/movementDetector.c **** * Indicates that measurement is started , i.e. PSoC ready to send ADC samples
 278:source\asw/movementDetector.c **** * Red - Off , Green - On , Yellow - Off
 279:source\asw/movementDetector.c **** */
 280:source\asw/movementDetector.c **** void ledIndicator_readyToSend()
 281:source\asw/movementDetector.c **** {
 306              		.loc 1 281 0
 307              		.cfi_startproc
 308              		@ args = 0, pretend = 0, frame = 0
 309              		@ frame_needed = 0, uses_anonymous_args = 0
 310 0000 08B5     		push	{r3, lr}
 311              		.cfi_def_cfa_offset 8
 312              		.cfi_offset 3, -8
 313              		.cfi_offset 14, -4
 282:source\asw/movementDetector.c ****     LED_Set(LED_GREEN,LED_ON);
 314              		.loc 1 282 0
 315 0002 0121     		movs	r1, #1
 316 0004 0220     		movs	r0, #2
 317 0006 FFF7FEFF 		bl	LED_Set
 318              	.LVL26:
 283:source\asw/movementDetector.c ****     LED_Set(LED_RED,LED_OFF);
 319              		.loc 1 283 0
 320 000a 0021     		movs	r1, #0
 321 000c 0846     		mov	r0, r1
 322 000e FFF7FEFF 		bl	LED_Set
 323              	.LVL27:
 284:source\asw/movementDetector.c ****     LED_Set(LED_YELLOW,LED_OFF);  
 324              		.loc 1 284 0
 325 0012 0021     		movs	r1, #0
 326 0014 0120     		movs	r0, #1
 327 0016 FFF7FEFF 		bl	LED_Set
 328              	.LVL28:
 329 001a 08BD     		pop	{r3, pc}
 330              		.cfi_endproc
 331              	.LFE69:
 332              		.size	ledIndicator_readyToSend, .-ledIndicator_readyToSend
 333              		.section	.text.movementDetector_StateMachine,"ax",%progbits
 334              		.align	2
 335              		.global	movementDetector_StateMachine
 336              		.thumb
 337              		.thumb_func
 338              		.type	movementDetector_StateMachine, %function
 339              	movementDetector_StateMachine:
 340              	.LFB63:
  48:source\asw/movementDetector.c ****     /* Stores the state */
 341              		.loc 1 48 0
ARM GAS  C:\Users\AADARS~1\AppData\Local\Temp\ccGpenw5.s 			page 12


 342              		.cfi_startproc
 343              		@ args = 0, pretend = 0, frame = 0
 344              		@ frame_needed = 0, uses_anonymous_args = 0
 345              	.LVL29:
 346 0000 38B5     		push	{r3, r4, r5, lr}
 347              		.cfi_def_cfa_offset 16
 348              		.cfi_offset 3, -16
 349              		.cfi_offset 4, -12
 350              		.cfi_offset 5, -8
 351              		.cfi_offset 14, -4
  53:source\asw/movementDetector.c ****     {
 352              		.loc 1 53 0
 353 0002 334B     		ldr	r3, .L48
 354 0004 DB78     		ldrb	r3, [r3, #3]	@ zero_extendqisi2
 355 0006 032B     		cmp	r3, #3
 356 0008 60D8     		bhi	.L38
 357 000a DFE803F0 		tbb	[pc, r3]
 358              	.L41:
 359 000e 02       		.byte	(.L40-.L41)/2
 360 000f 1E       		.byte	(.L42-.L41)/2
 361 0010 30       		.byte	(.L43-.L41)/2
 362 0011 43       		.byte	(.L44-.L41)/2
 363              		.p2align 1
 364              	.L40:
  57:source\asw/movementDetector.c ****             {
 365              		.loc 1 57 0
 366 0012 0020     		movs	r0, #0
 367              	.LVL30:
 368 0014 FFF7FEFF 		bl	getEvent
 369              	.LVL31:
 370 0018 0028     		cmp	r0, #0
 371 001a 57D0     		beq	.L38
  61:source\asw/movementDetector.c ****                 
 372              		.loc 1 61 0
 373 001c FFF7FEFF 		bl	ledIndicator_ReadyForMeasurement
 374              	.LVL32:
  64:source\asw/movementDetector.c ****                                 
 375              		.loc 1 64 0
 376 0020 0020     		movs	r0, #0
 377 0022 FFF7FEFF 		bl	clearEvent
 378              	.LVL33:
  67:source\asw/movementDetector.c ****                 
 379              		.loc 1 67 0
 380 0026 FFF7FEFF 		bl	ADC_DelSig_StartConvert
 381              	.LVL34:
  70:source\asw/movementDetector.c ****                 autoFreqChang ++;
 382              		.loc 1 70 0
 383 002a 294C     		ldr	r4, .L48
 384 002c 2079     		ldrb	r0, [r4, #4]	@ zero_extendqisi2
 385 002e FFF7FEFF 		bl	MuxControlRegister_Write
 386              	.LVL35:
  71:source\asw/movementDetector.c ****                 
 387              		.loc 1 71 0
 388 0032 2379     		ldrb	r3, [r4, #4]	@ zero_extendqisi2
 389 0034 0133     		adds	r3, r3, #1
 390 0036 DBB2     		uxtb	r3, r3
 391 0038 2371     		strb	r3, [r4, #4]
ARM GAS  C:\Users\AADARS~1\AppData\Local\Temp\ccGpenw5.s 			page 13


  74:source\asw/movementDetector.c ****                 {
 392              		.loc 1 74 0
 393 003a 0A2B     		cmp	r3, #10
 394 003c 01D1     		bne	.L45
  76:source\asw/movementDetector.c ****                 }
 395              		.loc 1 76 0
 396 003e 0022     		movs	r2, #0
 397 0040 2271     		strb	r2, [r4, #4]
 398              	.L45:
  79:source\asw/movementDetector.c ****             }                    
 399              		.loc 1 79 0
 400 0042 0122     		movs	r2, #1
 401 0044 224B     		ldr	r3, .L48
 402 0046 DA70     		strb	r2, [r3, #3]
 403 0048 38BD     		pop	{r3, r4, r5, pc}
 404              	.LVL36:
 405              	.L42:
  90:source\asw/movementDetector.c ****             {
 406              		.loc 1 90 0
 407 004a 0120     		movs	r0, #1
 408              	.LVL37:
 409 004c FFF7FEFF 		bl	getEvent
 410              	.LVL38:
 411 0050 0028     		cmp	r0, #0
 412 0052 3BD0     		beq	.L38
  90:source\asw/movementDetector.c ****             {
 413              		.loc 1 90 0 is_stmt 0 discriminator 1
 414 0054 FFF7FEFF 		bl	UART_GetChar
 415              	.LVL39:
 416 0058 7328     		cmp	r0, #115
 417 005a 37D1     		bne	.L38
  93:source\asw/movementDetector.c **** 
 418              		.loc 1 93 0 is_stmt 1
 419 005c 0120     		movs	r0, #1
 420 005e FFF7FEFF 		bl	clearEvent
 421              	.LVL40:
  96:source\asw/movementDetector.c ****                                 
 422              		.loc 1 96 0
 423 0062 FFF7FEFF 		bl	DMA_Enable
 424              	.LVL41:
  98:source\asw/movementDetector.c ****             }    
 425              		.loc 1 98 0
 426 0066 0222     		movs	r2, #2
 427 0068 194B     		ldr	r3, .L48
 428 006a DA70     		strb	r2, [r3, #3]
 429 006c 38BD     		pop	{r3, r4, r5, pc}
 430              	.LVL42:
 431              	.L43:
 432 006e 0446     		mov	r4, r0
 433 0070 0D46     		mov	r5, r1
 105:source\asw/movementDetector.c ****             {
 434              		.loc 1 105 0
 435 0072 0220     		movs	r0, #2
 436              	.LVL43:
 437 0074 FFF7FEFF 		bl	getEvent
 438              	.LVL44:
 439 0078 40B3     		cbz	r0, .L38
ARM GAS  C:\Users\AADARS~1\AppData\Local\Temp\ccGpenw5.s 			page 14


 108:source\asw/movementDetector.c ****             
 440              		.loc 1 108 0
 441 007a 0220     		movs	r0, #2
 442 007c FFF7FEFF 		bl	clearEvent
 443              	.LVL45:
 113:source\asw/movementDetector.c ****                 
 444              		.loc 1 113 0
 445 0080 FFF7FEFF 		bl	ledIndicator_readyToSend
 446              	.LVL46:
 116:source\asw/movementDetector.c ****             
 447              		.loc 1 116 0
 448 0084 2946     		mov	r1, r5
 449 0086 2046     		mov	r0, r4
 450 0088 FFF7FEFF 		bl	UART_PutArray
 451              	.LVL47:
 118:source\asw/movementDetector.c ****             }  
 452              		.loc 1 118 0
 453 008c 0322     		movs	r2, #3
 454 008e 104B     		ldr	r3, .L48
 455 0090 DA70     		strb	r2, [r3, #3]
 456 0092 38BD     		pop	{r3, r4, r5, pc}
 457              	.LVL48:
 458              	.L44:
 125:source\asw/movementDetector.c ****           {
 459              		.loc 1 125 0
 460 0094 0120     		movs	r0, #1
 461              	.LVL49:
 462 0096 FFF7FEFF 		bl	getEvent
 463              	.LVL50:
 464 009a 60B1     		cbz	r0, .L46
 125:source\asw/movementDetector.c ****           {
 465              		.loc 1 125 0 is_stmt 0 discriminator 1
 466 009c FFF7FEFF 		bl	UART_GetChar
 467              	.LVL51:
 468 00a0 6F28     		cmp	r0, #111
 469 00a2 08D1     		bne	.L46
 127:source\asw/movementDetector.c ****             state = STATE_MEASUREMENT ;
 470              		.loc 1 127 0 is_stmt 1
 471 00a4 0120     		movs	r0, #1
 472 00a6 FFF7FEFF 		bl	clearEvent
 473              	.LVL52:
 128:source\asw/movementDetector.c ****             counter++;
 474              		.loc 1 128 0
 475 00aa 094B     		ldr	r3, .L48
 476 00ac 0122     		movs	r2, #1
 477 00ae DA70     		strb	r2, [r3, #3]
 129:source\asw/movementDetector.c ****           }          
 478              		.loc 1 129 0
 479 00b0 5A79     		ldrb	r2, [r3, #5]	@ zero_extendqisi2
 480 00b2 0132     		adds	r2, r2, #1
 481 00b4 5A71     		strb	r2, [r3, #5]
 482              	.L46:
 131:source\asw/movementDetector.c ****           {
 483              		.loc 1 131 0
 484 00b6 064B     		ldr	r3, .L48
 485 00b8 5B79     		ldrb	r3, [r3, #5]	@ zero_extendqisi2
 486 00ba 0A2B     		cmp	r3, #10
ARM GAS  C:\Users\AADARS~1\AppData\Local\Temp\ccGpenw5.s 			page 15


 487 00bc 06D1     		bne	.L38
 133:source\asw/movementDetector.c ****             counter = 0;
 488              		.loc 1 133 0
 489 00be 044B     		ldr	r3, .L48
 490 00c0 0022     		movs	r2, #0
 491 00c2 DA70     		strb	r2, [r3, #3]
 134:source\asw/movementDetector.c ****             clearEvent(EV_ALL);
 492              		.loc 1 134 0
 493 00c4 5A71     		strb	r2, [r3, #5]
 135:source\asw/movementDetector.c ****           }
 494              		.loc 1 135 0
 495 00c6 0320     		movs	r0, #3
 496 00c8 FFF7FEFF 		bl	clearEvent
 497              	.LVL53:
 498              	.L38:
 499 00cc 38BD     		pop	{r3, r4, r5, pc}
 500              	.L49:
 501 00ce 00BF     		.align	2
 502              	.L48:
 503 00d0 00000000 		.word	.LANCHOR0
 504              		.cfi_endproc
 505              	.LFE63:
 506              		.size	movementDetector_StateMachine, .-movementDetector_StateMachine
 507              		.global	UART_RX_Flag
 508              		.global	dmaCompletionFlag
 509              		.global	buttonPressedFlag
 510              		.section	.rodata.str1.4,"aMS",%progbits,1
 511              		.align	2
 512              	.LC0:
 513 0000 496E7661 		.ascii	"Invalid Event \000"
 513      6C696420 
 513      4576656E 
 513      742000
 514              		.bss
 515              		.set	.LANCHOR0,. + 0
 516              		.type	buttonPressedFlag, %object
 517              		.size	buttonPressedFlag, 1
 518              	buttonPressedFlag:
 519 0000 00       		.space	1
 520              		.type	dmaCompletionFlag, %object
 521              		.size	dmaCompletionFlag, 1
 522              	dmaCompletionFlag:
 523 0001 00       		.space	1
 524              		.type	UART_RX_Flag, %object
 525              		.size	UART_RX_Flag, 1
 526              	UART_RX_Flag:
 527 0002 00       		.space	1
 528              		.type	state.6309, %object
 529              		.size	state.6309, 1
 530              	state.6309:
 531 0003 00       		.space	1
 532              		.type	autoFreqChang.6310, %object
 533              		.size	autoFreqChang.6310, 1
 534              	autoFreqChang.6310:
 535 0004 00       		.space	1
 536              		.type	counter, %object
 537              		.size	counter, 1
ARM GAS  C:\Users\AADARS~1\AppData\Local\Temp\ccGpenw5.s 			page 16


 538              	counter:
 539 0005 00       		.space	1
 540              		.text
 541              	.Letext0:
 542              		.file 2 "c:\\program files (x86)\\cypress\\psoc creator\\4.3\\psoc creator\\import\\gnu\\arm\\5.4.
 543              		.file 3 "c:\\program files (x86)\\cypress\\psoc creator\\4.3\\psoc creator\\import\\gnu\\arm\\5.4.
 544              		.file 4 "Generated_Source\\PSoC5/cytypes.h"
 545              		.file 5 ".\\source\\bsw/global.h"
 546              		.file 6 "source\\asw\\movementDetector.h"
 547              		.file 7 ".\\source\\bsw/led.h"
 548              		.file 8 "Generated_Source\\PSoC5/core_cm3.h"
 549              		.file 9 "Generated_Source\\PSoC5/UART.h"
 550              		.file 10 "Generated_Source\\PSoC5/ADC_DelSig.h"
 551              		.file 11 "Generated_Source\\PSoC5/MuxControlRegister.h"
 552              		.file 12 ".\\source\\bsw/dma.h"